-----BEGIN CERTIFICATE-----
MIIEUzCCA7ygAwIBAgIJALkS6JlZGtJ/MA0GCSqGSIb3DQEBBAUAMIHNMQswCQYD
VQQGEwJERTEQMA4GA1UECBMHR2VybWFueTESMBAGA1UEBxMJU3R1dHRnYXJ0MSAw
HgYDVQQKExdVbml2ZXJzaXR5IE9mIFN0dXR0Z2FydDEjMCEGA1UECxMaU3R1ZGVu
dCBBc3NvY2lhdGlvbiBGYVZlVmUxIzAhBgNVBAMTGmNhLmZhdmV2ZS51bmktc3R1
dHRnYXJ0LmRlMSwwKgYJKoZIhvcNAQkBFh1hZG1pbkBmYXZldmUudW5pLXN0dXR0
Z2FydC5kZTAeFw0wNjAyMTUyMzMxMDNaFw0xNjAyMTUyMzMxMDNaMIHNMQswCQYD
VQQGEwJERTEQMA4GA1UECBMHR2VybWFueTESMBAGA1UEBxMJU3R1dHRnYXJ0MSAw
HgYDVQQKExdVbml2ZXJzaXR5IE9mIFN0dXR0Z2FydDEjMCEGA1UECxMaU3R1ZGVu
dCBBc3NvY2lhdGlvbiBGYVZlVmUxIzAhBgNVBAMTGmNhLmZhdmV2ZS51bmktc3R1
dHRnYXJ0LmRlMSwwKgYJKoZIhvcNAQkBFh1hZG1pbkBmYXZldmUudW5pLXN0dXR0
Z2FydC5kZTCBnzANBgkqhkiG9w0BAQEFAAOBjQAwgYkCgYEAmlkGtOb2c6KLZNLh
ZGNxHYMCn2MG9BoQUlab7SBibD9KAO/NJbDueI8KiWI2rTZ/jdY/yAykaV9/XAVl
NCcEiG+WL+mmFzaucUbcBVuaO5hBPGITjcjs2jceOM2etBORlPj2GLUtrrM/pFFq
Nuj1ife/2WLwHKIIDJ4DLobnpqsCAwEAAaOCATcwggEzMB0GA1UdDgQWBBS6egzP
vIneeWYTCOlTB6GxEWsV5zCCAQIGA1UdIwSB+jCB94AUunoMz7yJ3nlmEwjpUweh
sRFrFeehgdOkgdAwgc0xCzAJBgNVBAYTAkRFMRAwDgYDVQQIEwdHZXJtYW55MRIw
EAYDVQQHEwlTdHV0dGdhcnQxIDAeBgNVBAoTF1VuaXZlcnNpdHkgT2YgU3R1dHRn
YXJ0MSMwIQYDVQQLExpTdHVkZW50IEFzc29jaWF0aW9uIEZhVmVWZTEjMCEGA1UE
AxMaY2EuZmF2ZXZlLnVuaS1zdHV0dGdhcnQuZGUxLDAqBgkqhkiG9w0BCQEWHWFk
bWluQGZhdmV2ZS51bmktc3R1dHRnYXJ0LmRlggkAuRLomVka0n8wDAYDVR0TBAUw
AwEB/zANBgkqhkiG9w0BAQQFAAOBgQB88jRHooIoKB9NoGHCFMSdkj/1iaS8VWqE
cHoRXiUd3TYkt8sP4Q1rTtw8d8ujmSiCd0ofUlEiqhJZ0mpIK2bMY3Hru6QQIHiw
Sr5npEWfE8mB5xx5GX+IhNHZB439VdWci5Qv8LHEe8Fx8AnMwMhsX5sBSrIVPsXu
zCTs5ctMbg==
-----END CERTIFICATE-----
Certificate:
    Data:
        Version: 3 (0x2)
        Serial Number: 12363202467320207017 (0xab92eb2416da96a9)
    Signature Algorithm: sha256WithRSAEncryption
        Issuer: C=DE, ST=Baden-Wuerttemberg, O=stuvus - Studierendenvertretung Universitaet Stuttgart, CN=ca.stuvus.uni-stuttgart.de
        Validity
            Not Before: Feb 16 08:33:03 2016 GMT
            Not After : Feb 15 08:33:03 2019 GMT
        Subject: C=DE, ST=Baden-Wuerttemberg, O=stuvus - Studierendenvertretung Universitaet Stuttgart, CN=ca.stuvus.uni-stuttgart.de
        Subject Public Key Info:
            Public Key Algorithm: rsaEncryption
                Public-Key: (2048 bit)
                Modulus:
                    00:b1:76:d3:14:1c:e7:c9:72:99:1b:91:4c:f9:94:
                    9e:83:3e:a7:a2:68:d5:1c:17:17:4f:e2:6f:30:6d:
                    b0:71:ad:da:5b:38:9d:c9:9e:32:be:11:ab:15:91:
                    75:a0:29:5e:92:62:77:59:23:13:4d:00:93:e0:f3:
                    b6:8d:1d:23:d1:be:1c:d3:76:f2:3a:9b:57:c0:52:
                    34:b7:7d:39:5d:05:f1:1d:18:02:d2:5d:77:01:53:
                    b5:41:e9:5c:e8:2d:83:74:5a:c7:d2:6d:3a:a5:62:
                    06:86:48:53:c6:91:55:0d:7e:85:72:72:54:40:7b:
                    12:cc:3f:f8:11:89:f1:17:fa:7f:7b:a5:a2:3d:03:
                    7b:4d:d2:fc:bc:c7:af:60:e8:7e:3f:23:e7:2d:8f:
                    76:72:f7:73:f2:bc:3d:ce:ac:10:2a:d1:29:80:4f:
                    1e:12:b9:dd:bb:fa:b2:f8:38:83:15:03:53:8f:ca:
                    d1:16:ff:1e:22:a0:a5:0a:08:27:57:64:5c:9d:4b:
                    cb:e7:24:9f:28:9f:0d:dd:b2:6d:da:2e:d7:fd:17:
                    10:5a:82:f7:2b:7e:d5:4b:44:b0:f9:92:52:d4:12:
                    47:df:99:b8:5b:7b:07:81:8d:4f:70:ec:df:7b:b5:
                    1d:40:2e:09:01:29:fd:a7:3f:65:88:50:b5:d8:e5:
                    a6:19
                Exponent: 65537 (0x10001)
        X509v3 extensions:
            X509v3 Subject Key Identifier: 
                11:DB:FD:49:F7:55:05:9F:BF:6E:1B:9A:27:54:DD:4E:F7:10:BC:19
            X509v3 Authority Key Identifier: 
                keyid:11:DB:FD:49:F7:55:05:9F:BF:6E:1B:9A:27:54:DD:4E:F7:10:BC:19

            X509v3 Basic Constraints: 
                CA:TRUE
    Signature Algorithm: sha256WithRSAEncryption
         8a:0c:67:e1:67:30:33:3a:06:f0:6f:05:71:87:d9:40:30:32:
         83:82:36:b9:7a:63:36:25:23:b6:52:73:52:27:24:6b:cf:91:
         e1:4f:9a:14:be:a6:a8:82:77:fa:c5:e9:8f:ea:7e:43:13:e6:
         e3:1b:77:0c:c1:18:f9:ea:a4:63:7f:d6:4e:5f:cf:04:10:28:
         d7:1b:c0:2d:6d:6d:b6:02:0a:4e:3f:e1:c3:fd:63:a3:f5:08:
         bb:0f:d9:ea:44:34:0b:7e:2e:ca:6d:1a:5b:3b:9c:10:08:42:
         5a:b1:d9:ad:5d:1f:26:47:12:0c:d3:e3:13:a2:ee:8c:0b:58:
         58:b9:a6:38:f7:13:93:fc:cc:c2:a4:67:cc:09:f7:41:8f:ac:
         65:3f:85:0c:37:23:c0:19:b2:ad:59:78:fa:aa:43:1d:cd:bf:
         c3:18:2b:b8:60:31:ec:7f:fe:e1:43:cd:a0:b5:5b:e3:89:e5:
         83:70:f4:48:85:d6:50:65:cf:88:46:86:be:76:82:83:bf:8e:
         73:65:1e:85:51:65:a0:d8:ed:45:d4:b8:65:2e:32:4a:1f:ea:
         9e:88:c5:73:a7:b6:6e:bf:ad:fd:1c:72:5e:4d:23:53:e5:f5:
         42:90:75:2f:7d:70:48:8c:00:08:29:cf:db:25:5e:0d:f8:a5:
         19:b1:2c:1b
-----BEGIN CERTIFICATE-----
MIID9TCCAt2gAwIBAgIJAKuS6yQW2papMA0GCSqGSIb3DQEBCwUAMIGQMQswCQYD
VQQGEwJERTEbMBkGA1UECAwSQmFkZW4tV3VlcnR0ZW1iZXJnMT8wPQYDVQQKDDZz
dHV2dXMgLSBTdHVkaWVyZW5kZW52ZXJ0cmV0dW5nIFVuaXZlcnNpdGFldCBTdHV0
dGdhcnQxIzAhBgNVBAMMGmNhLnN0dXZ1cy51bmktc3R1dHRnYXJ0LmRlMB4XDTE2
MDIxNjA4MzMwM1oXDTE5MDIxNTA4MzMwM1owgZAxCzAJBgNVBAYTAkRFMRswGQYD
VQQIDBJCYWRlbi1XdWVydHRlbWJlcmcxPzA9BgNVBAoMNnN0dXZ1cyAtIFN0dWRp
ZXJlbmRlbnZlcnRyZXR1bmcgVW5pdmVyc2l0YWV0IFN0dXR0Z2FydDEjMCEGA1UE
AwwaY2Euc3R1dnVzLnVuaS1zdHV0dGdhcnQuZGUwggEiMA0GCSqGSIb3DQEBAQUA
A4IBDwAwggEKAoIBAQCxdtMUHOfJcpkbkUz5lJ6DPqeiaNUcFxdP4m8wbbBxrdpb
OJ3JnjK+EasVkXWgKV6SYndZIxNNAJPg87aNHSPRvhzTdvI6m1fAUjS3fTldBfEd
GALSXXcBU7VB6VzoLYN0WsfSbTqlYgaGSFPGkVUNfoVyclRAexLMP/gRifEX+n97
paI9A3tN0vy8x69g6H4/I+ctj3Zy93PyvD3OrBAq0SmATx4Sud27+rL4OIMVA1OP
ytEW/x4ioKUKCCdXZFydS8vnJJ8onw3dsm3aLtf9FxBagvcrftVLRLD5klLUEkff
mbhbeweBjU9w7N97tR1ALgkBKf2nP2WIULXY5aYZAgMBAAGjUDBOMB0GA1UdDgQW
BBQR2/1J91UFn79uG5onVN1O9xC8GTAfBgNVHSMEGDAWgBQR2/1J91UFn79uG5on
VN1O9xC8GTAMBgNVHRMEBTADAQH/MA0GCSqGSIb3DQEBCwUAA4IBAQCKDGfhZzAz
OgbwbwVxh9lAMDKDgja5emM2JSO2UnNSJyRrz5HhT5oUvqaognf6xemP6n5DE+bj
G3cMwRj56qRjf9ZOX88EECjXG8AtbW22AgpOP+HD/WOj9Qi7D9nqRDQLfi7KbRpb
O5wQCEJasdmtXR8mRxIM0+MTou6MC1hYuaY49xOT/MzCpGfMCfdBj6xlP4UMNyPA
GbKtWXj6qkMdzb/DGCu4YDHsf/7hQ82gtVvjieWDcPRIhdZQZc+IRoa+doKDv45z
ZR6FUWWg2O1F1LhlLjJKH+qeiMVzp7Zuv639HHJeTSNT5fVCkHUvfXBIjAAIKc/b
JV4N+KUZsSwb
-----END CERTIFICATE-----
